; Function Attrs: nounwind uwtable
define internal noundef i32 @ltp_conv_packet(ptr noundef %0, ptr noundef %1, ptr readnone captures(none) %2, ptr noundef readonly captures(none) %3, i32 %4) #0 {
  %6 = getelementptr inbounds nuw i8, ptr %1, i64 408
  %7 = load ptr, ptr %6, align 8
  %8 = tail call noalias ptr @wmem_alloc0(ptr noundef %7, i64 noundef 24) #8
  %9 = load ptr, ptr %6, align 8
  %10 = tail call noalias ptr @wmem_alloc0(ptr noundef %9, i64 noundef 24) #8
  %11 = getelementptr inbounds nuw i8, ptr %3, i64 8
  %12 = load i8, ptr %11, align 8
  switch i8 %12, label %13 [
    i8 8, label %14
    i8 13, label %14
    i8 14, label %14
  ]

13:                                               ; preds = %5
  br label %14

14:                                               ; preds = %5, %5, %5, %13
  %.019 = phi ptr [ %8, %13 ], [ %10, %5 ], [ %10, %5 ], [ %10, %5 ]
  %.0 = phi ptr [ %10, %13 ], [ %8, %5 ], [ %8, %5 ], [ %8, %5 ]
  %15 = getelementptr inbounds nuw i8, ptr %3, i64 32
  %16 = load ptr, ptr %15, align 8
  %17 = tail call i64 @strlen(ptr noundef nonnull dereferenceable(1) %16) #9
  %18 = trunc i64 %17 to i32
  %19 = add i32 %18, 1
  store i32 7, ptr %.019, align 8
  %20 = getelementptr inbounds nuw i8, ptr %.019, i64 4
  store i32 %19, ptr %20, align 4
  %21 = getelementptr inbounds nuw i8, ptr %.019, i64 8
  store ptr %16, ptr %21, align 8
  %22 = getelementptr inbounds nuw i8, ptr %.019, i64 16
  store ptr null, ptr %22, align 8
  %.b = load i1, ptr @ltp_addr_receiver.0, align 8
  %23 = select i1 %.b, i32 7, i32 0
  %.b20 = load i1, ptr @ltp_addr_receiver.1, align 4
  %24 = select i1 %.b20, i32 9, i32 0
  %25 = load ptr, ptr @ltp_addr_receiver.2, align 8
  store i32 %23, ptr %.0, align 8
  %26 = getelementptr inbounds nuw i8, ptr %.0, i64 4
  store i32 %24, ptr %26, align 4
  %27 = getelementptr inbounds nuw i8, ptr %.0, i64 8
  store ptr %25, ptr %27, align 8
  %28 = getelementptr inbounds nuw i8, ptr %.0, i64 16
  store ptr null, ptr %28, align 8
  %29 = getelementptr inbounds nuw i8, ptr %1, i64 80
  %30 = load ptr, ptr %29, align 8
  %31 = getelementptr inbounds nuw i8, ptr %30, i64 4
  %32 = load i32, ptr %31, align 4
  %33 = getelementptr inbounds nuw i8, ptr %1, i64 40
  %34 = getelementptr inbounds nuw i8, ptr %1, i64 24
  tail call void @add_conversation_table_data(ptr noundef %0, ptr noundef %8, ptr noundef %10, i32 noundef 0, i32 noundef 0, i32 noundef 1, i32 noundef %32, ptr noundef nonnull %33, ptr noundef nonnull %34, ptr noundef nonnull @ltp_ct_dissector_info, i32 noundef 0) #8
  ret i32 1
}